target datalayout = "e-m:e-p270:32:32-p271:32:32-p272:64:64-i64:64-i128:128-f80:128-n8:16:32:64-S128"
target triple = "x86_64-pc-linux-gnu"

; Function Attrs: nounwind uwtable
define internal i32 @kek_wrap_key(ptr noundef %0, ptr noundef %1, ptr noundef %2, i64 noundef %3, ptr noundef %4, ptr noundef %5) #0 {
  %7 = alloca i32, align 4
  %8 = alloca ptr, align 8
  %9 = alloca ptr, align 8
  %10 = alloca ptr, align 8
  %11 = alloca i64, align 8
  %12 = alloca ptr, align 8
  %13 = alloca ptr, align 8
  %14 = alloca i64, align 8
  %15 = alloca i64, align 8
  %16 = alloca i32, align 4
  %17 = alloca i32, align 4
  store ptr %0, ptr %8, align 8, !tbaa !8
  store ptr %1, ptr %9, align 8, !tbaa !56
  store ptr %2, ptr %10, align 8, !tbaa !8
  store i64 %3, ptr %11, align 8, !tbaa !10
  store ptr %4, ptr %12, align 8, !tbaa !29
  store ptr %5, ptr %13, align 8, !tbaa !32
  call void @llvm.lifetime.start.p0(i64 8, ptr %14) #6
  %18 = load ptr, ptr %12, align 8, !tbaa !29
  %19 = call i32 @EVP_CIPHER_CTX_get_block_size(ptr noundef %18)
  %20 = sext i32 %19 to i64
  store i64 %20, ptr %14, align 8, !tbaa !10
  call void @llvm.lifetime.start.p0(i64 8, ptr %15) #6
  call void @llvm.lifetime.start.p0(i64 4, ptr %16) #6
  %21 = load i64, ptr %14, align 8, !tbaa !10
  %22 = icmp eq i64 %21, 0
  br i1 %22, label %23, label %24

23:                                               ; preds = %6
  store i32 0, ptr %7, align 4
  store i32 1, ptr %17, align 4
  br label %119

24:                                               ; preds = %6
  %25 = load i64, ptr %11, align 8, !tbaa !10
  %26 = add i64 %25, 4
  %27 = load i64, ptr %14, align 8, !tbaa !10
  %28 = add i64 %26, %27
  %29 = sub i64 %28, 1
  %30 = load i64, ptr %14, align 8, !tbaa !10
  %31 = udiv i64 %29, %30
  store i64 %31, ptr %15, align 8, !tbaa !10
  %32 = load i64, ptr %14, align 8, !tbaa !10
  %33 = load i64, ptr %15, align 8, !tbaa !10
  %34 = mul i64 %33, %32
  store i64 %34, ptr %15, align 8, !tbaa !10
  %35 = load i64, ptr %15, align 8, !tbaa !10
  %36 = load i64, ptr %14, align 8, !tbaa !10
  %37 = mul i64 2, %36
  %38 = icmp ult i64 %35, %37
  br i1 %38, label %39, label %40

39:                                               ; preds = %24
  store i32 0, ptr %7, align 4
  store i32 1, ptr %17, align 4
  br label %119

40:                                               ; preds = %24
  %41 = load i64, ptr %11, align 8, !tbaa !10
  %42 = icmp ugt i64 %41, 255
  br i1 %42, label %43, label %44

43:                                               ; preds = %40
  store i32 0, ptr %7, align 4
  store i32 1, ptr %17, align 4
  br label %119

44:                                               ; preds = %40
  %45 = load ptr, ptr %8, align 8, !tbaa !8
  %46 = icmp ne ptr %45, null
  br i1 %46, label %47, label %116

47:                                               ; preds = %44
  %48 = load i64, ptr %11, align 8, !tbaa !10
  %49 = trunc i64 %48 to i8
  %50 = load ptr, ptr %8, align 8, !tbaa !8
  %51 = getelementptr inbounds i8, ptr %50, i64 0
  store i8 %49, ptr %51, align 1, !tbaa !15
  %52 = load ptr, ptr %10, align 8, !tbaa !8
  %53 = getelementptr inbounds i8, ptr %52, i64 0
  %54 = load i8, ptr %53, align 1, !tbaa !15
  %55 = zext i8 %54 to i32
  %56 = xor i32 %55, 255
  %57 = trunc i32 %56 to i8
  %58 = load ptr, ptr %8, align 8, !tbaa !8
  %59 = getelementptr inbounds i8, ptr %58, i64 1
  store i8 %57, ptr %59, align 1, !tbaa !15
  %60 = load ptr, ptr %10, align 8, !tbaa !8
  %61 = getelementptr inbounds i8, ptr %60, i64 1
  %62 = load i8, ptr %61, align 1, !tbaa !15
  %63 = zext i8 %62 to i32
  %64 = xor i32 %63, 255
  %65 = trunc i32 %64 to i8
  %66 = load ptr, ptr %8, align 8, !tbaa !8
  %67 = getelementptr inbounds i8, ptr %66, i64 2
  store i8 %65, ptr %67, align 1, !tbaa !15
  %68 = load ptr, ptr %10, align 8, !tbaa !8
  %69 = getelementptr inbounds i8, ptr %68, i64 2
  %70 = load i8, ptr %69, align 1, !tbaa !15
  %71 = zext i8 %70 to i32
  %72 = xor i32 %71, 255
  %73 = trunc i32 %72 to i8
  %74 = load ptr, ptr %8, align 8, !tbaa !8
  %75 = getelementptr inbounds i8, ptr %74, i64 3
  store i8 %73, ptr %75, align 1, !tbaa !15
  %76 = load ptr, ptr %8, align 8, !tbaa !8
  %77 = getelementptr inbounds i8, ptr %76, i64 4
  %78 = load ptr, ptr %10, align 8, !tbaa !8
  %79 = load i64, ptr %11, align 8, !tbaa !10
  call void @llvm.memcpy.p0.p0.i64(ptr align 1 %77, ptr align 1 %78, i64 %79, i1 false)
  %80 = load i64, ptr %15, align 8, !tbaa !10
  %81 = load i64, ptr %11, align 8, !tbaa !10
  %82 = add i64 %81, 4
  %83 = icmp ugt i64 %80, %82
  br i1 %83, label %84, label %98

84:                                               ; preds = %47
  %85 = load ptr, ptr %13, align 8, !tbaa !32
  %86 = call ptr @ossl_cms_ctx_get0_libctx(ptr noundef %85)
  %87 = load ptr, ptr %8, align 8, !tbaa !8
  %88 = getelementptr inbounds i8, ptr %87, i64 4
  %89 = load i64, ptr %11, align 8, !tbaa !10
  %90 = getelementptr inbounds nuw i8, ptr %88, i64 %89
  %91 = load i64, ptr %15, align 8, !tbaa !10
  %92 = sub i64 %91, 4
  %93 = load i64, ptr %11, align 8, !tbaa !10
  %94 = sub i64 %92, %93
  %95 = call i32 @RAND_bytes_ex(ptr noundef %86, ptr noundef %90, i64 noundef %94, i32 noundef 0)
  %96 = icmp sle i32 %95, 0
  br i1 %96, label %97, label %98

97:                                               ; preds = %84
  store i32 0, ptr %7, align 4
  store i32 1, ptr %17, align 4
  br label %119

98:                                               ; preds = %84, %47
  %99 = load ptr, ptr %12, align 8, !tbaa !29
  %100 = load ptr, ptr %8, align 8, !tbaa !8
  %101 = load ptr, ptr %8, align 8, !tbaa !8
  %102 = load i64, ptr %15, align 8, !tbaa !10
  %103 = trunc i64 %102 to i32
  %104 = call i32 @EVP_EncryptUpdate(ptr noundef %99, ptr noundef %100, ptr noundef %16, ptr noundef %101, i32 noundef %103)
  %105 = icmp ne i32 %104, 0
  br i1 %105, label %106, label %114

106:                                              ; preds = %98
  %107 = load ptr, ptr %12, align 8, !tbaa !29
  %108 = load ptr, ptr %8, align 8, !tbaa !8
  %109 = load ptr, ptr %8, align 8, !tbaa !8
  %110 = load i64, ptr %15, align 8, !tbaa !10
  %111 = trunc i64 %110 to i32
  %112 = call i32 @EVP_EncryptUpdate(ptr noundef %107, ptr noundef %108, ptr noundef %16, ptr noundef %109, i32 noundef %111)
  %113 = icmp ne i32 %112, 0
  br i1 %113, label %115, label %114

114:                                              ; preds = %106, %98
  store i32 0, ptr %7, align 4
  store i32 1, ptr %17, align 4
  br label %119

115:                                              ; preds = %106
  br label %116

116:                                              ; preds = %115, %44
  %117 = load i64, ptr %15, align 8, !tbaa !10
  %118 = load ptr, ptr %9, align 8, !tbaa !56
  store i64 %117, ptr %118, align 8, !tbaa !10
  store i32 1, ptr %7, align 4
  store i32 1, ptr %17, align 4
  br label %119

119:                                              ; preds = %116, %114, %97, %43, %39, %23
  call void @llvm.lifetime.end.p0(i64 4, ptr %16) #6
  call void @llvm.lifetime.end.p0(i64 8, ptr %15) #6
  call void @llvm.lifetime.end.p0(i64 8, ptr %14) #6
  %120 = load i32, ptr %7, align 4
  ret i32 %120
}