; Function Attrs: nounwind uwtable
define internal fastcc range(i32 0, 2) i32 @kek_wrap_key(ptr noundef %0, ptr noundef nonnull writeonly captures(none) %1, ptr noundef readonly captures(none) %2, i64 noundef %3, ptr noundef nonnull %4, ptr noundef %5) unnamed_addr #0 {
  %7 = alloca i32, align 4
  %8 = tail call i32 @EVP_CIPHER_CTX_get_block_size(ptr noundef nonnull %4) #5
  %.fr44 = freeze i32 %8
  call void @llvm.lifetime.start.p0(i64 4, ptr nonnull %7) #5
  %9 = icmp eq i32 %.fr44, 0
  br i1 %9, label %48, label %10

10:                                               ; preds = %6
  %11 = sext i32 %.fr44 to i64
  %12 = add i64 %3, 4
  %13 = add i64 %3, 3
  %14 = add i64 %13, %11
  %15 = urem i64 %14, %11
  %16 = sub nuw i64 %14, %15
  %17 = shl nsw i64 %11, 1
  %18 = icmp ult i64 %16, %17
  %19 = icmp ugt i64 %3, 255
  %or.cond = or i1 %19, %18
  br i1 %or.cond, label %48, label %20

20:                                               ; preds = %10
  %.not = icmp eq ptr %0, null
  br i1 %.not, label %47, label %21

21:                                               ; preds = %20
  %22 = trunc nuw i64 %3 to i8
  store i8 %22, ptr %0, align 1, !tbaa !8
  %23 = load i8, ptr %2, align 1, !tbaa !8
  %24 = xor i8 %23, -1
  %25 = getelementptr inbounds nuw i8, ptr %0, i64 1
  store i8 %24, ptr %25, align 1, !tbaa !8
  %26 = getelementptr inbounds nuw i8, ptr %2, i64 1
  %27 = load i8, ptr %26, align 1, !tbaa !8
  %28 = xor i8 %27, -1
  %29 = getelementptr inbounds nuw i8, ptr %0, i64 2
  store i8 %28, ptr %29, align 1, !tbaa !8
  %30 = getelementptr inbounds nuw i8, ptr %2, i64 2
  %31 = load i8, ptr %30, align 1, !tbaa !8
  %32 = xor i8 %31, -1
  %33 = getelementptr inbounds nuw i8, ptr %0, i64 3
  store i8 %32, ptr %33, align 1, !tbaa !8
  %34 = getelementptr inbounds nuw i8, ptr %0, i64 4
  tail call void @llvm.memcpy.p0.p0.i64(ptr nonnull align 1 %34, ptr nonnull align 1 %2, i64 %3, i1 false)
  %35 = icmp ugt i64 %16, %12
  br i1 %35, label %36, label %42

36:                                               ; preds = %21
  %37 = tail call ptr @ossl_cms_ctx_get0_libctx(ptr noundef %5) #5
  %38 = getelementptr inbounds nuw i8, ptr %34, i64 %3
  %reass.sub = sub i64 %16, %3
  %39 = add i64 %reass.sub, -4
  %40 = tail call i32 @RAND_bytes_ex(ptr noundef %37, ptr noundef nonnull %38, i64 noundef %39, i32 noundef 0) #5
  %41 = icmp slt i32 %40, 1
  br i1 %41, label %48, label %42

42:                                               ; preds = %36, %21
  %43 = trunc i64 %16 to i32
  %44 = call i32 @EVP_EncryptUpdate(ptr noundef nonnull %4, ptr noundef nonnull %0, ptr noundef nonnull %7, ptr noundef nonnull %0, i32 noundef %43) #5
  %.not45 = icmp eq i32 %44, 0
  br i1 %.not45, label %48, label %45

45:                                               ; preds = %42
  %46 = call i32 @EVP_EncryptUpdate(ptr noundef nonnull %4, ptr noundef nonnull %0, ptr noundef nonnull %7, ptr noundef nonnull %0, i32 noundef %43) #5
  %.not46 = icmp eq i32 %46, 0
  br i1 %.not46, label %48, label %47

47:                                               ; preds = %45, %20
  store i64 %16, ptr %1, align 8, !tbaa !34
  br label %48

48:                                               ; preds = %42, %45, %36, %10, %6, %47
  %.0 = phi i32 [ 1, %47 ], [ 0, %6 ], [ 0, %10 ], [ 0, %36 ], [ 0, %45 ], [ 0, %42 ]
  call void @llvm.lifetime.end.p0(i64 4, ptr nonnull %7) #5
  ret i32 %.0
}